; Function Attrs: mustprogress uwtable
define hidden noundef zeroext i1 @_ZN18OpenImageIO_v2_6_08HdrInput5closeEv(ptr noundef nonnull align 8 dereferenceable(248) %this) unnamed_addr #6 align 2 personality ptr @__gxx_personality_v0 {
entry:
  %m_subimage.i = getelementptr inbounds i8, ptr %this, i64 216
  store i32 -1, ptr %m_subimage.i, align 8
  %m_next_scanline.i = getelementptr inbounds i8, ptr %this, i64 220
  store i32 0, ptr %m_next_scanline.i, align 4
  %m_scanline_offsets.i = getelementptr inbounds i8, ptr %this, i64 224
  %0 = load ptr, ptr %m_scanline_offsets.i, align 8
  %_M_finish.i.i.i = getelementptr inbounds i8, ptr %this, i64 232
  %1 = load ptr, ptr %_M_finish.i.i.i, align 8
  %tobool.not.i.i.i = icmp eq ptr %1, %0
  br i1 %tobool.not.i.i.i, label %_ZN18OpenImageIO_v2_6_08HdrInput4initEv.exit, label %invoke.cont.i.i.i

invoke.cont.i.i.i:                                ; preds = %entry
  store ptr %0, ptr %_M_finish.i.i.i, align 8
  br label %_ZN18OpenImageIO_v2_6_08HdrInput4initEv.exit

_ZN18OpenImageIO_v2_6_08HdrInput4initEv.exit:     ; preds = %entry, %invoke.cont.i.i.i
  tail call void @_ZN18OpenImageIO_v2_6_010ImageInput13ioproxy_clearEv(ptr noundef nonnull align 8 dereferenceable(184) %this)
  ret i1 true
}